Certificate:
    Data:
        Version: 3 (0x2)
        Serial Number:
            7f:79:cd:33:85:1a:9f:4b:56:2e:d0:26:03:79:c5:0e:3e:68:dc:9a
        Signature Algorithm: sha256WithRSAEncryption
        Issuer: CN = localhost
        Validity
            Not Before: Jul 11 18:13:01 2025 GMT
            Not After : Jul 11 18:13:01 2026 GMT
        Subject: CN = localhost
        Subject Public Key Info:
            Public Key Algorithm: rsaEncryption
                Public-Key: (2048 bit)
                Modulus:
                    00:d0:a9:15:93:01:0c:e0:11:c1:d5:6f:69:7d:9c:
                    b5:08:6f:20:d7:fb:9f:96:0b:a5:1f:eb:53:02:40:
                    57:03:da:9f:09:a5:60:5a:76:12:2b:da:3f:ff:95:
                    cd:cc:51:d1:34:63:8e:16:48:35:eb:50:93:de:eb:
                    75:c8:32:60:b3:1e:ba:15:3e:85:cc:a5:1c:ce:90:
                    cb:9f:f1:0f:be:ec:98:25:e0:a6:bf:f4:fe:ec:e5:
                    e4:77:92:d2:a8:8a:28:d0:fa:b6:85:7b:49:7a:f2:
                    3f:70:ac:76:08:0c:3d:99:e4:ca:c1:38:96:34:06:
                    5a:1f:f6:2c:16:ea:a9:c6:d0:93:2e:2e:ca:88:02:
                    8e:4c:07:21:f4:de:40:ee:1a:65:b1:f8:17:9d:ef:
                    1f:af:eb:ef:8c:4f:50:3e:47:3c:32:d9:27:a2:5f:
                    51:2b:e3:df:0a:5a:92:3c:be:bc:26:3e:fe:d2:0d:
                    15:6b:16:71:c9:33:49:3a:c6:9a:32:0a:46:91:42:
                    02:95:f1:81:71:c6:7a:2a:10:9d:9c:0c:88:2c:0e:
                    1b:96:11:cb:be:0b:2a:10:c3:6a:69:2d:72:2d:aa:
                    39:04:b9:af:79:b7:ee:62:e4:ef:0c:4e:f3:4b:30:
                    5c:b7:a1:57:47:38:e6:13:f3:91:42:f1:9f:e2:dc:
                    21:99
                Exponent: 65537 (0x10001)
        X509v3 extensions:
            X509v3 Subject Key Identifier: 
                D3:72:21:F5:6C:22:F4:81:E8:56:EF:56:E1:95:21:B5:B9:4E:0C:32
            X509v3 Authority Key Identifier: 
                D3:72:21:F5:6C:22:F4:81:E8:56:EF:56:E1:95:21:B5:B9:4E:0C:32
            X509v3 Basic Constraints: critical
                CA:TRUE
    Signature Algorithm: sha256WithRSAEncryption
    Signature Value:
        96:73:25:66:e1:2f:a7:fd:17:e9:bd:fe:06:70:fc:0e:6b:bd:
        33:2e:3b:88:27:a3:5b:d0:9a:1a:20:36:52:10:01:12:b2:a2:
        f2:79:be:56:95:69:df:39:07:91:35:cb:25:fe:d0:f0:57:f4:
        d6:b6:ea:3f:db:fa:d7:c5:df:bb:2b:2e:a6:37:0a:90:68:c8:
        8d:fb:35:d1:9c:a7:5f:04:bd:02:8b:56:0b:4d:68:de:9c:99:
        f4:05:f3:9a:b8:e3:43:a9:9b:58:1d:f6:4a:b9:d4:36:19:4a:
        a4:7e:8c:7e:8e:88:d0:7e:1d:a9:a9:64:c3:89:42:2b:a8:a9:
        d7:87:9f:00:b6:32:fa:0c:c0:e6:5d:d1:48:ef:5c:04:db:82:
        70:b7:e2:cc:ad:98:d1:97:09:80:b3:57:12:66:e1:db:0b:e6:
        e1:6f:8b:d9:11:f6:e7:60:be:a0:a9:51:07:c3:b9:5d:bc:34:
        27:f7:db:19:ad:66:55:23:bb:01:9a:fa:09:2a:0a:09:62:a9:
        a8:81:00:4a:a7:02:25:f1:8a:2e:31:6b:ca:8a:60:1a:c8:64:
        a8:7a:8b:b9:9f:fc:91:3d:05:80:16:0d:b6:67:c8:2b:41:d0:
        33:ee:5a:44:65:f6:64:c1:74:47:9b:38:b0:fd:6e:74:6a:f8:
        59:c0:6e:f6
-----BEGIN CERTIFICATE-----
MIIDCTCCAfGgAwIBAgIUf3nNM4Uan0tWLtAmA3nFDj5o3JowDQYJKoZIhvcNAQEL
BQAwFDESMBAGA1UEAwwJbG9jYWxob3N0MB4XDTI1MDcxMTE4MTMwMVoXDTI2MDcx
MTE4MTMwMVowFDESMBAGA1UEAwwJbG9jYWxob3N0MIIBIjANBgkqhkiG9w0BAQEF
AAOCAQ8AMIIBCgKCAQEA0KkVkwEM4BHB1W9pfZy1CG8g1/uflgulH+tTAkBXA9qf
CaVgWnYSK9o//5XNzFHRNGOOFkg161CT3ut1yDJgsx66FT6FzKUczpDLn/EPvuyY
JeCmv/T+7OXkd5LSqIoo0Pq2hXtJevI/cKx2CAw9meTKwTiWNAZaH/YsFuqpxtCT
Li7KiAKOTAch9N5A7hplsfgXne8fr+vvjE9QPkc8Mtknol9RK+PfClqSPL68Jj7+
0g0VaxZxyTNJOsaaMgpGkUIClfGBccZ6KhCdnAyILA4blhHLvgsqEMNqaS1yLao5
BLmvebfuYuTvDE7zSzBct6FXRzjmE/ORQvGf4twhmQIDAQABo1MwUTAdBgNVHQ4E
FgQU03Ih9Wwi9IHoVu9W4ZUhtblODDIwHwYDVR0jBBgwFoAU03Ih9Wwi9IHoVu9W
4ZUhtblODDIwDwYDVR0TAQH/BAUwAwEB/zANBgkqhkiG9w0BAQsFAAOCAQEAlnMl
ZuEvp/0X6b3+BnD8Dmu9My47iCejW9CaGiA2UhABErKi8nm+VpVp3zkHkTXLJf7Q
8Ff01rbqP9v618XfuysupjcKkGjIjfs10ZynXwS9AotWC01o3pyZ9AXzmrjjQ6mb
WB32SrnUNhlKpH6Mfo6I0H4dqalkw4lCK6ip14efALYy+gzA5l3RSO9cBNuCcLfi
zK2Y0ZcJgLNXEmbh2wvm4W+L2RH252C+oKlRB8O5Xbw0J/fbGa1mVSO7AZr6CSoK
CWKpqIEASqcCJfGKLjFryopgGshkqHqLuZ/8kT0FgBYNtmfIK0HQM+5aRGX2ZMF0
R5s4sP1udGr4WcBu9g==
-----END CERTIFICATE-----
